; Function Attrs: mustprogress noreturn uwtable
define void @_ZN5dtm_t15producer_threadEv(ptr noundef nonnull align 8 dereferenceable(928) %0) local_unnamed_addr #7 align 2 {
  %2 = getelementptr inbounds i8, ptr %0, i64 872
  store i64 8589934608, ptr %2, align 8
  %.sroa.22.0..sroa_idx.i.i = getelementptr inbounds i8, ptr %0, i64 880
  store i32 1, ptr %.sroa.22.0..sroa_idx.i.i, align 8
  %3 = getelementptr inbounds i8, ptr %0, i64 728
  %4 = load ptr, ptr %3, align 8
  tail call void @_ZN9context_t9switch_toEv(ptr noundef nonnull align 8 dereferenceable(32) %4)
  %5 = getelementptr inbounds i8, ptr %0, i64 888
  br label %6

6:                                                ; preds = %6, %1
  store i64 4294967312, ptr %2, align 8
  store i32 0, ptr %.sroa.22.0..sroa_idx.i.i, align 8
  %7 = load ptr, ptr %3, align 8
  tail call void @_ZN9context_t9switch_toEv(ptr noundef nonnull align 8 dereferenceable(32) %7)
  %8 = load i32, ptr %5, align 8
  %9 = and i32 %8, 1
  %10 = icmp eq i32 %9, 0
  br i1 %10, label %6, label %11, !llvm.loop !17

11:                                               ; preds = %6
  store i64 4294967318, ptr %2, align 8
  store i32 0, ptr %.sroa.22.0..sroa_idx.i.i, align 8
  %12 = load ptr, ptr %3, align 8
  tail call void @_ZN9context_t9switch_toEv(ptr noundef nonnull align 8 dereferenceable(32) %12)
  %13 = load i32, ptr %5, align 8
  %14 = lshr i32 %13, 24
  %15 = and i32 %14, 31
  %16 = zext nneg i32 %15 to i64
  %17 = getelementptr inbounds i8, ptr %0, i64 904
  store i64 %16, ptr %17, align 8
  %18 = and i32 %13, 15
  %19 = zext nneg i32 %18 to i64
  %20 = getelementptr inbounds i8, ptr %0, i64 912
  store i64 %19, ptr %20, align 8
  store i64 4294967314, ptr %2, align 8
  store i32 0, ptr %.sroa.22.0..sroa_idx.i.i, align 8
  %21 = load ptr, ptr %3, align 8
  tail call void @_ZN9context_t9switch_toEv(ptr noundef nonnull align 8 dereferenceable(32) %21)
  %22 = load i32, ptr %5, align 8
  %23 = and i32 %22, 4095
  %24 = getelementptr inbounds i8, ptr %0, i64 896
  store i32 %23, ptr %24, align 8
  %25 = tail call noundef i32 @_ZN5dtm_t15enumerate_hartsEv(ptr noundef nonnull align 8 dereferenceable(928) %0), !range !18
  %26 = getelementptr inbounds i8, ptr %0, i64 920
  store i32 %25, ptr %26, align 8
  tail call void @_ZN5dtm_t4haltEi(ptr noundef nonnull align 8 dereferenceable(928) %0, i32 noundef 0)
  %27 = tail call noundef i32 @_ZN5dtm_t8get_xlenEv(ptr noundef nonnull align 8 dereferenceable(928) %0), !range !19
  %28 = getelementptr inbounds i8, ptr %0, i64 900
  store i32 %27, ptr %28, align 4
  tail call void @_ZN5dtm_t6resumeEi(ptr noundef nonnull align 8 dereferenceable(928) %0, i32 noundef 0)
  %29 = getelementptr inbounds i8, ptr %0, i64 892
  store i8 1, ptr %29, align 4
  %30 = tail call noundef i32 @_ZN6htif_t3runEv(ptr noundef nonnull align 8 dereferenceable(696) %0)
  br label %31

31:                                               ; preds = %31, %11
  store i64 0, ptr %2, align 8
  store i32 0, ptr %.sroa.22.0..sroa_idx.i.i, align 8
  %32 = load ptr, ptr %3, align 8
  tail call void @_ZN9context_t9switch_toEv(ptr noundef nonnull align 8 dereferenceable(32) %32)
  br label %31, !llvm.loop !20
}